target datalayout = "e-m:e-p270:32:32-p271:32:32-p272:64:64-i64:64-i128:128-f80:128-n8:16:32:64-S128"
target triple = "x86_64-pc-linux-gnu"

%struct._zval_struct = type { %union._zend_value, %union.anon, %union.anon.2 }
%union._zend_value = type { i64 }
%union.anon = type { i32 }
%union.anon.2 = type { i32 }
%struct._zend_refcounted_h = type { i32, %union.anon.3 }
%union.anon.3 = type { i32 }
%struct._dom_object = type { ptr, ptr, ptr, %struct._zend_object }
%struct._zend_object = type { %struct._zend_refcounted_h, i32, ptr, ptr, ptr, [1 x %struct._zval_struct] }
%struct._libxml_doc_props = type { ptr, i8, i8, i8, i8, i8, i8, i8 }

; Function Attrs: nounwind uwtable
define hidden i32 @dom_document_validate_on_parse_read(ptr noundef %0, ptr noundef %1) #0 {
  %3 = alloca ptr, align 8
  %4 = alloca ptr, align 8
  %5 = alloca ptr, align 8
  store ptr %0, ptr %3, align 8
  store ptr %1, ptr %4, align 8
  %6 = load ptr, ptr %3, align 8
  %7 = getelementptr inbounds %struct._dom_object, ptr %6, i32 0, i32 1
  %8 = load ptr, ptr %7, align 8
  %9 = call ptr @dom_get_doc_props_read_only(ptr noundef %8)
  store ptr %9, ptr %5, align 8
  br label %10

10:                                               ; preds = %2
  %11 = load ptr, ptr %5, align 8
  %12 = getelementptr inbounds %struct._libxml_doc_props, ptr %11, i32 0, i32 2
  %13 = load i8, ptr %12, align 1
  %14 = trunc i8 %13 to i1
  %15 = select i1 %14, i32 3, i32 2
  %16 = load ptr, ptr %4, align 8
  %17 = getelementptr inbounds %struct._zval_struct, ptr %16, i32 0, i32 1
  store i32 %15, ptr %17, align 8
  br label %18

18:                                               ; preds = %10
  ret i32 0
}